target datalayout = "e-m:e-p270:32:32-p271:32:32-p272:64:64-i64:64-i128:128-f80:128-n8:16:32:64-S128"
target triple = "x86_64-pc-linux-gnu"

; Function Attrs: nounwind uwtable
define hidden zeroext i1 @HIDAPI_SupportsPlaystationDetection(i16 noundef zeroext %0, i16 noundef zeroext %1) #0 {
  %3 = alloca i1, align 1
  %4 = alloca i16, align 2
  %5 = alloca i16, align 2
  store i16 %0, ptr %4, align 2
  store i16 %1, ptr %5, align 2
  %6 = load i16, ptr %4, align 2
  %7 = load i16, ptr %5, align 2
  %8 = call i32 @SDL_GetGamepadTypeFromVIDPID(i16 noundef zeroext %6, i16 noundef zeroext %7, ptr noundef null, i1 noundef zeroext false)
  %9 = icmp ne i32 %8, 1
  br i1 %9, label %10, label %11

10:                                               ; preds = %2
  store i1 false, ptr %3, align 1
  br label %36

11:                                               ; preds = %2
  %12 = load i16, ptr %4, align 2
  %13 = zext i16 %12 to i32
  switch i32 %13, label %35 [
    i32 121, label %14
    i32 3853, label %15
    i32 1133, label %16
    i32 1848, label %17
    i32 13279, label %23
    i32 5227, label %24
    i32 12933, label %24
    i32 3695, label %25
    i32 9414, label %26
    i32 8406, label %27
    i32 11298, label %28
    i32 5426, label %29
    i32 9571, label %30
    i32 8380, label %31
    i32 1103, label %32
    i32 3090, label %33
    i32 30021, label %34
  ]

14:                                               ; preds = %11
  store i1 true, ptr %3, align 1
  br label %36

15:                                               ; preds = %11
  store i1 true, ptr %3, align 1
  br label %36

16:                                               ; preds = %11
  store i1 false, ptr %3, align 1
  br label %36

17:                                               ; preds = %11
  %18 = load i16, ptr %5, align 2
  %19 = zext i16 %18 to i32
  %20 = icmp eq i32 %19, 8728
  br i1 %20, label %21, label %22

21:                                               ; preds = %17
  store i1 false, ptr %3, align 1
  br label %36

22:                                               ; preds = %17
  store i1 true, ptr %3, align 1
  br label %36

23:                                               ; preds = %11
  store i1 true, ptr %3, align 1
  br label %36

24:                                               ; preds = %11, %11
  store i1 true, ptr %3, align 1
  br label %36

25:                                               ; preds = %11
  store i1 true, ptr %3, align 1
  br label %36

26:                                               ; preds = %11
  store i1 true, ptr %3, align 1
  br label %36

27:                                               ; preds = %11
  store i1 true, ptr %3, align 1
  br label %36

28:                                               ; preds = %11
  store i1 true, ptr %3, align 1
  br label %36

29:                                               ; preds = %11
  store i1 false, ptr %3, align 1
  br label %36

30:                                               ; preds = %11
  store i1 true, ptr %3, align 1
  br label %36

31:                                               ; preds = %11
  store i1 true, ptr %3, align 1
  br label %36

32:                                               ; preds = %11
  store i1 false, ptr %3, align 1
  br label %36

33:                                               ; preds = %11
  store i1 true, ptr %3, align 1
  br label %36

34:                                               ; preds = %11
  store i1 true, ptr %3, align 1
  br label %36

35:                                               ; preds = %11
  store i1 false, ptr %3, align 1
  br label %36

36:                                               ; preds = %35, %34, %33, %32, %31, %30, %29, %28, %27, %26, %25, %24, %23, %22, %21, %16, %15, %14, %10
  %37 = load i1, ptr %3, align 1
  ret i1 %37
}