; Function Attrs: nounwind uwtable
define hidden noundef zeroext i1 @HIDAPI_SupportsPlaystationDetection(i16 noundef zeroext %0, i16 noundef zeroext %1) local_unnamed_addr #0 {
  %3 = tail call i32 @SDL_GetGamepadTypeFromVIDPID(i16 noundef zeroext %0, i16 noundef zeroext %1, ptr noundef null, i1 noundef zeroext false) #9
  %.not = icmp eq i32 %3, 1
  br i1 %.not, label %4, label %8

4:                                                ; preds = %2
  switch i16 %0, label %7 [
    i16 121, label %8
    i16 3853, label %8
    i16 30021, label %8
    i16 1848, label %5
    i16 13279, label %8
    i16 5227, label %8
    i16 12933, label %8
    i16 3695, label %8
    i16 9414, label %8
    i16 8406, label %8
    i16 11298, label %8
    i16 3090, label %8
    i16 9571, label %8
    i16 8380, label %8
  ]

5:                                                ; preds = %4
  %6 = icmp ne i16 %1, 8728
  br label %8

7:                                                ; preds = %4
  br label %8

8:                                                ; preds = %5, %4, %4, %4, %4, %4, %4, %4, %4, %4, %4, %4, %4, %4, %2, %7
  %.0 = phi i1 [ false, %7 ], [ false, %2 ], [ true, %4 ], [ true, %4 ], [ true, %4 ], [ true, %4 ], [ true, %4 ], [ true, %4 ], [ true, %4 ], [ true, %4 ], [ true, %4 ], [ true, %4 ], [ true, %4 ], [ true, %4 ], [ true, %4 ], [ %6, %5 ]
  ret i1 %.0
}